target datalayout = "e-m:e-p270:32:32-p271:32:32-p272:64:64-i64:64-i128:128-f80:128-n8:16:32:64-S128"
target triple = "x86_64-pc-linux-gnu"

%struct.hb_object_header_t = type { %struct.hb_reference_count_t, %struct.hb_atomic_int_t, %struct.hb_atomic_ptr_t }
%struct.hb_reference_count_t = type { %struct.hb_atomic_int_t }
%struct.hb_atomic_int_t = type { i32 }
%struct.hb_atomic_ptr_t = type { ptr }
%struct.hb_atomic_ptr_t.1 = type { ptr }
%struct.hb_atomic_ptr_t.5 = type { ptr }
%struct.hb_font_t = type { %struct.hb_object_header_t, i32, i32, ptr, ptr, i32, i32, float, float, i8, i32, i32, float, float, float, float, i64, i64, i32, i32, float, i32, i32, ptr, ptr, ptr, ptr, ptr, %struct.hb_shaper_object_dataset_t }
%struct.hb_shaper_object_dataset_t = type { ptr, %struct.hb_shaper_lazy_loader_t, %struct.hb_shaper_lazy_loader_t.2 }
%struct.hb_shaper_lazy_loader_t = type { %struct.hb_lazy_loader_t }
%struct.hb_lazy_loader_t = type { %struct.hb_atomic_ptr_t.1 }
%struct.hb_shaper_lazy_loader_t.2 = type { %struct.hb_lazy_loader_t.3 }
%struct.hb_lazy_loader_t.3 = type { %struct.hb_atomic_ptr_t.5 }

@.str.4 = private unnamed_addr constant [7 x i8] c"OBJECT\00", align 1
@.str.5 = private unnamed_addr constant [15 x i8] c"%s refcount=%d\00", align 1
@__PRETTY_FUNCTION__._ZL19hb_object_referenceI9hb_font_tEPT_S2_ = private unnamed_addr constant [53 x i8] c"Type *hb_object_reference(Type *) [Type = hb_font_t]\00", align 1

; Function Attrs: mustprogress nounwind uwtable
define linkonce_odr hidden noundef i32 @_ZN15hb_atomic_int_t3incEv(ptr noundef nonnull align 4 dereferenceable(4) %0) #1 comdat align 2 {
  %2 = alloca ptr, align 8
  %3 = alloca i32, align 4
  %4 = alloca i32, align 4
  store ptr %0, ptr %2, align 8
  %5 = load ptr, ptr %2, align 8
  %6 = getelementptr inbounds %struct.hb_atomic_int_t, ptr %5, i32 0, i32 0
  store i32 1, ptr %3, align 4
  %7 = load i32, ptr %3, align 4
  %8 = atomicrmw add ptr %6, i32 %7 acq_rel, align 4
  store i32 %8, ptr %4, align 4
  %9 = load i32, ptr %4, align 4
  ret i32 %9
}

; Function Attrs: mustprogress nounwind uwtable
define internal void @_ZL13_hb_debug_msgILi0EEvPKcPKvS1_bjiS1_z(ptr noundef %0, ptr noundef %1, ptr noundef %2, i1 noundef zeroext %3, i32 noundef %4, i32 noundef %5, ptr noundef %6, ...) #1 {
  %8 = alloca ptr, align 8
  %9 = alloca ptr, align 8
  %10 = alloca ptr, align 8
  %11 = alloca i8, align 1
  %12 = alloca i32, align 4
  %13 = alloca i32, align 4
  %14 = alloca ptr, align 8
  store ptr %0, ptr %8, align 8
  store ptr %1, ptr %9, align 8
  store ptr %2, ptr %10, align 8
  %15 = zext i1 %3 to i8
  store i8 %15, ptr %11, align 1
  store i32 %4, ptr %12, align 4
  store i32 %5, ptr %13, align 4
  store ptr %6, ptr %14, align 8
  ret void
}

; Function Attrs: mustprogress uwtable
define linkonce_odr hidden noundef i32 @_ZNK20hb_reference_count_t11get_relaxedEv(ptr noundef nonnull align 4 dereferenceable(4) %0) #0 comdat align 2 {
  %2 = alloca ptr, align 8
  store ptr %0, ptr %2, align 8
  %3 = load ptr, ptr %2, align 8
  %4 = getelementptr inbounds %struct.hb_reference_count_t, ptr %3, i32 0, i32 0
  %5 = call noundef i32 @_ZNK15hb_atomic_int_tcviEv(ptr noundef nonnull align 4 dereferenceable(4) %4)
  ret i32 %5
}

; Function Attrs: mustprogress uwtable
define linkonce_odr hidden noundef i32 @_ZNK20hb_reference_count_t3incEv(ptr noundef nonnull align 4 dereferenceable(4) %0) #0 comdat align 2 {
  %2 = alloca ptr, align 8
  store ptr %0, ptr %2, align 8
  %3 = load ptr, ptr %2, align 8
  %4 = getelementptr inbounds %struct.hb_reference_count_t, ptr %3, i32 0, i32 0
  %5 = call noundef i32 @_ZN15hb_atomic_int_t3incEv(ptr noundef nonnull align 4 dereferenceable(4) %4)
  ret i32 %5
}

; Function Attrs: mustprogress uwtable
define linkonce_odr hidden noundef zeroext i1 @_ZNK18hb_object_header_t8is_inertEv(ptr noundef nonnull align 8 dereferenceable(16) %0) #0 comdat align 2 {
  %2 = alloca ptr, align 8
  store ptr %0, ptr %2, align 8
  %3 = load ptr, ptr %2, align 8
  %4 = getelementptr inbounds %struct.hb_object_header_t, ptr %3, i32 0, i32 0
  %5 = call noundef i32 @_ZNK20hb_reference_count_t11get_relaxedEv(ptr noundef nonnull align 4 dereferenceable(4) %4)
  %6 = icmp ne i32 %5, 0
  %7 = xor i1 %6, true
  ret i1 %7
}

; Function Attrs: mustprogress uwtable
define internal void @_ZL15hb_object_traceI9hb_font_tEvPKT_PKc(ptr noundef %0, ptr noundef %1) #0 {
  %3 = alloca ptr, align 8
  %4 = alloca ptr, align 8
  store ptr %0, ptr %3, align 8
  store ptr %1, ptr %4, align 8
  %5 = load ptr, ptr %3, align 8
  %6 = load ptr, ptr %4, align 8
  %7 = load ptr, ptr %3, align 8
  %8 = icmp ne ptr %7, null
  br i1 %8, label %9, label %14

9:                                                ; preds = %2
  %10 = load ptr, ptr %3, align 8
  %11 = getelementptr inbounds %struct.hb_font_t, ptr %10, i32 0, i32 0
  %12 = getelementptr inbounds %struct.hb_object_header_t, ptr %11, i32 0, i32 0
  %13 = call noundef i32 @_ZNK20hb_reference_count_t11get_relaxedEv(ptr noundef nonnull align 4 dereferenceable(4) %12)
  br label %15

14:                                               ; preds = %2
  br label %15

15:                                               ; preds = %14, %9
  %16 = phi i32 [ %13, %9 ], [ 0, %14 ]
  call void (ptr, ptr, ptr, i1, i32, i32, ptr, ...) @_ZL13_hb_debug_msgILi0EEvPKcPKvS1_bjiS1_z(ptr noundef @.str.4, ptr noundef %5, ptr noundef null, i1 noundef zeroext false, i32 noundef 0, i32 noundef 0, ptr noundef @.str.5, ptr noundef %6, i32 noundef %16)
  ret void
}

; Function Attrs: mustprogress nounwind uwtable
define linkonce_odr hidden noundef i32 @_ZNK15hb_atomic_int_t11get_relaxedEv(ptr noundef nonnull align 4 dereferenceable(4) %0) #1 comdat align 2 {
  %2 = alloca ptr, align 8
  %3 = alloca i32, align 4
  store ptr %0, ptr %2, align 8
  %4 = load ptr, ptr %2, align 8
  %5 = getelementptr inbounds %struct.hb_atomic_int_t, ptr %4, i32 0, i32 0
  %6 = load atomic i32, ptr %5 monotonic, align 4
  store i32 %6, ptr %3, align 4
  %7 = load i32, ptr %3, align 4
  ret i32 %7
}

; Function Attrs: mustprogress nounwind uwtable
define linkonce_odr hidden noundef nonnull align 8 dereferenceable(192) ptr @_ZN4NullI9hb_font_tE8get_nullEv() #1 comdat align 2 {
  ret ptr @_hb_Null_hb_font_t
}

; Function Attrs: mustprogress uwtable
define internal noundef ptr @_ZL19hb_object_referenceI9hb_font_tEPT_S2_(ptr noundef %0) #0 {
  %2 = alloca ptr, align 8
  %3 = alloca ptr, align 8
  store ptr %0, ptr %3, align 8
  %4 = load ptr, ptr %3, align 8
  call void @_ZL15hb_object_traceI9hb_font_tEvPKT_PKc(ptr noundef %4, ptr noundef @__PRETTY_FUNCTION__._ZL19hb_object_referenceI9hb_font_tEPT_S2_)
  %5 = load ptr, ptr %3, align 8
  %6 = icmp ne ptr %5, null
  br i1 %6, label %7, label %11

7:                                                ; preds = %1
  %8 = load ptr, ptr %3, align 8
  %9 = getelementptr inbounds %struct.hb_font_t, ptr %8, i32 0, i32 0
  %10 = call noundef zeroext i1 @_ZNK18hb_object_header_t8is_inertEv(ptr noundef nonnull align 8 dereferenceable(16) %9)
  br i1 %10, label %11, label %13

11:                                               ; preds = %7, %1
  %12 = load ptr, ptr %3, align 8
  store ptr %12, ptr %2, align 8
  br label %19

13:                                               ; preds = %7
  %14 = load ptr, ptr %3, align 8
  %15 = getelementptr inbounds %struct.hb_font_t, ptr %14, i32 0, i32 0
  %16 = getelementptr inbounds %struct.hb_object_header_t, ptr %15, i32 0, i32 0
  %17 = call noundef i32 @_ZNK20hb_reference_count_t3incEv(ptr noundef nonnull align 4 dereferenceable(4) %16)
  %18 = load ptr, ptr %3, align 8
  store ptr %18, ptr %2, align 8
  br label %19

19:                                               ; preds = %13, %11
  %20 = load ptr, ptr %2, align 8
  ret ptr %20
}

; Function Attrs: mustprogress uwtable
define linkonce_odr hidden noundef i32 @_ZNK15hb_atomic_int_tcviEv(ptr noundef nonnull align 4 dereferenceable(4) %0) #0 comdat align 2 {
  %2 = alloca ptr, align 8
  store ptr %0, ptr %2, align 8
  %3 = load ptr, ptr %2, align 8
  %4 = call noundef i32 @_ZNK15hb_atomic_int_t11get_relaxedEv(ptr noundef nonnull align 4 dereferenceable(4) %3)
  ret i32 %4
}

; Function Attrs: mustprogress uwtable
define linkonce_odr hidden noundef nonnull align 8 dereferenceable(192) ptr @_ZN10NullHelperI9hb_font_tE8get_nullEv() #0 comdat align 2 {
  %1 = call noundef nonnull align 8 dereferenceable(192) ptr @_ZN4NullI9hb_font_tE8get_nullEv()
  ret ptr %1
}

; Function Attrs: mustprogress uwtable
define internal void @_ZL25_hb_font_adopt_var_coordsP9hb_font_tPiPfj(ptr noundef %0, ptr noundef %1, ptr noundef %2, i32 noundef %3) #0 {
  %5 = alloca ptr, align 8
  %6 = alloca ptr, align 8
  %7 = alloca ptr, align 8
  %8 = alloca i32, align 4
  store ptr %0, ptr %5, align 8
  store ptr %1, ptr %6, align 8
  store ptr %2, ptr %7, align 8
  store i32 %3, ptr %8, align 4
  %9 = load ptr, ptr %5, align 8
  %10 = getelementptr inbounds %struct.hb_font_t, ptr %9, i32 0, i32 23
  %11 = load ptr, ptr %10, align 8
  call void @free(ptr noundef %11) #12
  %12 = load ptr, ptr %5, align 8
  %13 = getelementptr inbounds %struct.hb_font_t, ptr %12, i32 0, i32 24
  %14 = load ptr, ptr %13, align 8
  call void @free(ptr noundef %14) #12
  %15 = load ptr, ptr %6, align 8
  %16 = load ptr, ptr %5, align 8
  %17 = getelementptr inbounds %struct.hb_font_t, ptr %16, i32 0, i32 23
  store ptr %15, ptr %17, align 8
  %18 = load ptr, ptr %7, align 8
  %19 = load ptr, ptr %5, align 8
  %20 = getelementptr inbounds %struct.hb_font_t, ptr %19, i32 0, i32 24
  store ptr %18, ptr %20, align 8
  %21 = load i32, ptr %8, align 4
  %22 = load ptr, ptr %5, align 8
  %23 = getelementptr inbounds %struct.hb_font_t, ptr %22, i32 0, i32 22
  store i32 %21, ptr %23, align 8
  %24 = load ptr, ptr %5, align 8
  call void @_ZN9hb_font_t13mults_changedEv(ptr noundef nonnull align 8 dereferenceable(192) %24)
  ret void
}

; Function Attrs: mustprogress nounwind uwtable
define internal noundef ptr @_ZL9hb_memcpyPvPKvm(ptr noalias noundef %0, ptr noalias noundef %1, i64 noundef %2) #1 {
  %4 = alloca ptr, align 8
  %5 = alloca ptr, align 8
  %6 = alloca ptr, align 8
  %7 = alloca i64, align 8
  store ptr %0, ptr %5, align 8
  store ptr %1, ptr %6, align 8
  store i64 %2, ptr %7, align 8
  %8 = load i64, ptr %7, align 8
  %9 = icmp ne i64 %8, 0
  br i1 %9, label %12, label %10

10:                                               ; preds = %3
  %11 = load ptr, ptr %5, align 8
  store ptr %11, ptr %4, align 8
  br label %16

12:                                               ; preds = %3
  %13 = load ptr, ptr %5, align 8
  %14 = load ptr, ptr %6, align 8
  %15 = load i64, ptr %7, align 8
  call void @llvm.memcpy.p0.p0.i64(ptr align 1 %13, ptr align 1 %14, i64 %15, i1 false)
  store ptr %13, ptr %4, align 8
  br label %16

16:                                               ; preds = %12, %10
  %17 = load ptr, ptr %4, align 8
  ret ptr %17
}

; Function Attrs: mustprogress uwtable
define hidden ptr @hb_font_reference(ptr noundef %0) #0 {
  %2 = alloca ptr, align 8
  store ptr %0, ptr %2, align 8
  %3 = load ptr, ptr %2, align 8
  %4 = call noundef ptr @_ZL19hb_object_referenceI9hb_font_tEPT_S2_(ptr noundef %3)
  ret ptr %4
}

; Function Attrs: mustprogress uwtable
define internal noundef zeroext i1 @_ZL22hb_object_is_immutableI9hb_font_tEbPKT_(ptr noundef %0) #0 {
  %2 = alloca ptr, align 8
  store ptr %0, ptr %2, align 8
  %3 = load ptr, ptr %2, align 8
  %4 = getelementptr inbounds %struct.hb_font_t, ptr %3, i32 0, i32 0
  %5 = getelementptr inbounds %struct.hb_object_header_t, ptr %4, i32 0, i32 1
  %6 = call noundef i32 @_ZNK15hb_atomic_int_tcviEv(ptr noundef nonnull align 4 dereferenceable(4) %5)
  %7 = icmp ne i32 %6, 0
  %8 = xor i1 %7, true
  ret i1 %8
}

; Function Attrs: mustprogress uwtable
define hidden ptr @hb_font_get_empty() #0 {
  %1 = call noundef nonnull align 8 dereferenceable(192) ptr @_ZN10NullHelperI9hb_font_tE8get_nullEv()
  ret ptr %1
}

; Function Attrs: mustprogress uwtable
define hidden ptr @hb_font_create_sub_font(ptr noundef %0) #0 {
  %2 = alloca ptr, align 8
  %3 = alloca ptr, align 8
  %4 = alloca ptr, align 8
  %5 = alloca i32, align 4
  %6 = alloca ptr, align 8
  %7 = alloca ptr, align 8
  store ptr %0, ptr %3, align 8
  %8 = load ptr, ptr %3, align 8
  %9 = icmp ne ptr %8, null
  br i1 %9, label %12, label %10

10:                                               ; preds = %1
  %11 = call ptr @hb_font_get_empty()
  store ptr %11, ptr %3, align 8
  br label %12

12:                                               ; preds = %10, %1
  %13 = load ptr, ptr %3, align 8
  %14 = getelementptr inbounds %struct.hb_font_t, ptr %13, i32 0, i32 4
  %15 = load ptr, ptr %14, align 8
  %16 = call noundef ptr @_ZL15_hb_font_createP9hb_face_t(ptr noundef %15)
  store ptr %16, ptr %4, align 8
  %17 = load ptr, ptr %4, align 8
  %18 = call noundef zeroext i1 @_ZL22hb_object_is_immutableI9hb_font_tEbPKT_(ptr noundef %17)
  br i1 %18, label %19, label %21

19:                                               ; preds = %12
  %20 = load ptr, ptr %4, align 8
  store ptr %20, ptr %2, align 8
  br label %118

21:                                               ; preds = %12
  %22 = load ptr, ptr %3, align 8
  %23 = call ptr @hb_font_reference(ptr noundef %22)
  %24 = load ptr, ptr %4, align 8
  %25 = getelementptr inbounds %struct.hb_font_t, ptr %24, i32 0, i32 3
  store ptr %23, ptr %25, align 8
  %26 = load ptr, ptr %3, align 8
  %27 = getelementptr inbounds %struct.hb_font_t, ptr %26, i32 0, i32 5
  %28 = load i32, ptr %27, align 8
  %29 = load ptr, ptr %4, align 8
  %30 = getelementptr inbounds %struct.hb_font_t, ptr %29, i32 0, i32 5
  store i32 %28, ptr %30, align 8
  %31 = load ptr, ptr %3, align 8
  %32 = getelementptr inbounds %struct.hb_font_t, ptr %31, i32 0, i32 6
  %33 = load i32, ptr %32, align 4
  %34 = load ptr, ptr %4, align 8
  %35 = getelementptr inbounds %struct.hb_font_t, ptr %34, i32 0, i32 6
  store i32 %33, ptr %35, align 4
  %36 = load ptr, ptr %3, align 8
  %37 = getelementptr inbounds %struct.hb_font_t, ptr %36, i32 0, i32 7
  %38 = load float, ptr %37, align 8
  %39 = load ptr, ptr %4, align 8
  %40 = getelementptr inbounds %struct.hb_font_t, ptr %39, i32 0, i32 7
  store float %38, ptr %40, align 8
  %41 = load ptr, ptr %3, align 8
  %42 = getelementptr inbounds %struct.hb_font_t, ptr %41, i32 0, i32 8
  %43 = load float, ptr %42, align 4
  %44 = load ptr, ptr %4, align 8
  %45 = getelementptr inbounds %struct.hb_font_t, ptr %44, i32 0, i32 8
  store float %43, ptr %45, align 4
  %46 = load ptr, ptr %3, align 8
  %47 = getelementptr inbounds %struct.hb_font_t, ptr %46, i32 0, i32 9
  %48 = load i8, ptr %47, align 8
  %49 = trunc i8 %48 to i1
  %50 = load ptr, ptr %4, align 8
  %51 = getelementptr inbounds %struct.hb_font_t, ptr %50, i32 0, i32 9
  %52 = zext i1 %49 to i8
  store i8 %52, ptr %51, align 8
  %53 = load ptr, ptr %3, align 8
  %54 = getelementptr inbounds %struct.hb_font_t, ptr %53, i32 0, i32 12
  %55 = load float, ptr %54, align 4
  %56 = load ptr, ptr %4, align 8
  %57 = getelementptr inbounds %struct.hb_font_t, ptr %56, i32 0, i32 12
  store float %55, ptr %57, align 4
  %58 = load ptr, ptr %3, align 8
  %59 = getelementptr inbounds %struct.hb_font_t, ptr %58, i32 0, i32 18
  %60 = load i32, ptr %59, align 8
  %61 = load ptr, ptr %4, align 8
  %62 = getelementptr inbounds %struct.hb_font_t, ptr %61, i32 0, i32 18
  store i32 %60, ptr %62, align 8
  %63 = load ptr, ptr %3, align 8
  %64 = getelementptr inbounds %struct.hb_font_t, ptr %63, i32 0, i32 19
  %65 = load i32, ptr %64, align 4
  %66 = load ptr, ptr %4, align 8
  %67 = getelementptr inbounds %struct.hb_font_t, ptr %66, i32 0, i32 19
  store i32 %65, ptr %67, align 4
  %68 = load ptr, ptr %3, align 8
  %69 = getelementptr inbounds %struct.hb_font_t, ptr %68, i32 0, i32 20
  %70 = load float, ptr %69, align 8
  %71 = load ptr, ptr %4, align 8
  %72 = getelementptr inbounds %struct.hb_font_t, ptr %71, i32 0, i32 20
  store float %70, ptr %72, align 8
  %73 = load ptr, ptr %3, align 8
  %74 = getelementptr inbounds %struct.hb_font_t, ptr %73, i32 0, i32 22
  %75 = load i32, ptr %74, align 8
  store i32 %75, ptr %5, align 4
  %76 = load i32, ptr %5, align 4
  %77 = icmp ne i32 %76, 0
  br i1 %77, label %78, label %115

78:                                               ; preds = %21
  %79 = load i32, ptr %5, align 4
  %80 = zext i32 %79 to i64
  %81 = call noalias ptr @calloc(i64 noundef %80, i64 noundef 4) #11
  store ptr %81, ptr %6, align 8
  %82 = load i32, ptr %5, align 4
  %83 = zext i32 %82 to i64
  %84 = call noalias ptr @calloc(i64 noundef %83, i64 noundef 4) #11
  store ptr %84, ptr %7, align 8
  %85 = load ptr, ptr %6, align 8
  %86 = icmp ne ptr %85, null
  br i1 %86, label %87, label %111

87:                                               ; preds = %78
  %88 = load ptr, ptr %7, align 8
  %89 = icmp ne ptr %88, null
  br i1 %89, label %90, label %111

90:                                               ; preds = %87
  %91 = load ptr, ptr %6, align 8
  %92 = load ptr, ptr %3, align 8
  %93 = getelementptr inbounds %struct.hb_font_t, ptr %92, i32 0, i32 23
  %94 = load ptr, ptr %93, align 8
  %95 = load i32, ptr %5, align 4
  %96 = zext i32 %95 to i64
  %97 = mul i64 %96, 4
  %98 = call noundef ptr @_ZL9hb_memcpyPvPKvm(ptr noundef %91, ptr noundef %94, i64 noundef %97)
  %99 = load ptr, ptr %7, align 8
  %100 = load ptr, ptr %3, align 8
  %101 = getelementptr inbounds %struct.hb_font_t, ptr %100, i32 0, i32 24
  %102 = load ptr, ptr %101, align 8
  %103 = load i32, ptr %5, align 4
  %104 = zext i32 %103 to i64
  %105 = mul i64 %104, 4
  %106 = call noundef ptr @_ZL9hb_memcpyPvPKvm(ptr noundef %99, ptr noundef %102, i64 noundef %105)
  %107 = load ptr, ptr %4, align 8
  %108 = load ptr, ptr %6, align 8
  %109 = load ptr, ptr %7, align 8
  %110 = load i32, ptr %5, align 4
  call void @_ZL25_hb_font_adopt_var_coordsP9hb_font_tPiPfj(ptr noundef %107, ptr noundef %108, ptr noundef %109, i32 noundef %110)
  br label %114

111:                                              ; preds = %87, %78
  %112 = load ptr, ptr %6, align 8
  call void @free(ptr noundef %112) #12
  %113 = load ptr, ptr %7, align 8
  call void @free(ptr noundef %113) #12
  br label %114

114:                                              ; preds = %111, %90
  br label %115

115:                                              ; preds = %114, %21
  %116 = load ptr, ptr %4, align 8
  call void @_ZN9hb_font_t13mults_changedEv(ptr noundef nonnull align 8 dereferenceable(192) %116)
  %117 = load ptr, ptr %4, align 8
  store ptr %117, ptr %2, align 8
  br label %118

118:                                              ; preds = %115, %19
  %119 = load ptr, ptr %2, align 8
  ret ptr %119
}