; Function Attrs: mustprogress uwtable
define hidden noundef ptr @hb_font_create_sub_font(ptr noundef %0) local_unnamed_addr #1 {
  %.not = icmp eq ptr %0, null
  %spec.select = select i1 %.not, ptr @_hb_Null_hb_font_t, ptr %0
  %2 = getelementptr inbounds i8, ptr %spec.select, i64 32
  %3 = load ptr, ptr %2, align 8
  %4 = tail call fastcc noundef ptr @_ZL15_hb_font_createP9hb_face_t(ptr noundef %3)
  %5 = getelementptr inbounds i8, ptr %4, i64 4
  %6 = load atomic i32, ptr %5 monotonic, align 4
  %.not.i = icmp eq i32 %6, 0
  br i1 %.not.i, label %62, label %7

7:                                                ; preds = %1
  %8 = load atomic i32, ptr %spec.select monotonic, align 4
  %9 = load atomic i32, ptr %spec.select monotonic, align 4
  %.not.i7.i.i = icmp eq i32 %9, 0
  br i1 %.not.i7.i.i, label %hb_font_reference.exit, label %10

10:                                               ; preds = %7
  %11 = atomicrmw add ptr %spec.select, i32 1 acq_rel, align 4
  br label %hb_font_reference.exit

hb_font_reference.exit:                           ; preds = %7, %10
  %12 = getelementptr inbounds i8, ptr %4, i64 24
  store ptr %spec.select, ptr %12, align 8
  %13 = getelementptr inbounds i8, ptr %spec.select, i64 40
  %14 = load i32, ptr %13, align 8
  %15 = getelementptr inbounds i8, ptr %4, i64 40
  store i32 %14, ptr %15, align 8
  %16 = getelementptr inbounds i8, ptr %spec.select, i64 44
  %17 = load i32, ptr %16, align 4
  %18 = getelementptr inbounds i8, ptr %4, i64 44
  store i32 %17, ptr %18, align 4
  %19 = getelementptr inbounds i8, ptr %spec.select, i64 48
  %20 = load float, ptr %19, align 8
  %21 = getelementptr inbounds i8, ptr %4, i64 48
  store float %20, ptr %21, align 8
  %22 = getelementptr inbounds i8, ptr %spec.select, i64 52
  %23 = load float, ptr %22, align 4
  %24 = getelementptr inbounds i8, ptr %4, i64 52
  store float %23, ptr %24, align 4
  %25 = getelementptr inbounds i8, ptr %spec.select, i64 56
  %26 = load i8, ptr %25, align 8
  %27 = getelementptr inbounds i8, ptr %4, i64 56
  %28 = and i8 %26, 1
  store i8 %28, ptr %27, align 8
  %29 = getelementptr inbounds i8, ptr %spec.select, i64 68
  %30 = load float, ptr %29, align 4
  %31 = getelementptr inbounds i8, ptr %4, i64 68
  store float %30, ptr %31, align 4
  %32 = getelementptr inbounds i8, ptr %spec.select, i64 104
  %33 = load i32, ptr %32, align 8
  %34 = getelementptr inbounds i8, ptr %4, i64 104
  store i32 %33, ptr %34, align 8
  %35 = getelementptr inbounds i8, ptr %spec.select, i64 108
  %36 = load i32, ptr %35, align 4
  %37 = getelementptr inbounds i8, ptr %4, i64 108
  store i32 %36, ptr %37, align 4
  %38 = getelementptr inbounds i8, ptr %spec.select, i64 112
  %39 = load float, ptr %38, align 8
  %40 = getelementptr inbounds i8, ptr %4, i64 112
  store float %39, ptr %40, align 8
  %41 = getelementptr inbounds i8, ptr %spec.select, i64 120
  %42 = load i32, ptr %41, align 8
  %.not49 = icmp eq i32 %42, 0
  br i1 %.not49, label %61, label %43

43:                                               ; preds = %hb_font_reference.exit
  %44 = zext i32 %42 to i64
  %45 = tail call noalias ptr @calloc(i64 noundef %44, i64 noundef 4) #23
  %46 = tail call noalias ptr @calloc(i64 noundef %44, i64 noundef 4) #23
  %47 = icmp ne ptr %45, null
  %48 = icmp ne ptr %46, null
  %or.cond = and i1 %47, %48
  br i1 %or.cond, label %49, label %60

49:                                               ; preds = %43
  %50 = getelementptr inbounds i8, ptr %spec.select, i64 128
  %51 = load ptr, ptr %50, align 8
  %52 = shl nuw nsw i64 %44, 2
  tail call void @llvm.memcpy.p0.p0.i64(ptr nonnull align 1 %45, ptr readonly align 1 %51, i64 %52, i1 false), !alias.scope !13
  %53 = getelementptr inbounds i8, ptr %spec.select, i64 136
  %54 = load ptr, ptr %53, align 8
  tail call void @llvm.memcpy.p0.p0.i64(ptr nonnull align 1 %46, ptr readonly align 1 %54, i64 %52, i1 false), !alias.scope !17
  %55 = getelementptr inbounds i8, ptr %4, i64 128
  %56 = load ptr, ptr %55, align 8
  tail call void @free(ptr noundef %56) #24
  %57 = getelementptr inbounds i8, ptr %4, i64 136
  %58 = load ptr, ptr %57, align 8
  tail call void @free(ptr noundef %58) #24
  store ptr %45, ptr %55, align 8
  store ptr %46, ptr %57, align 8
  %59 = getelementptr inbounds i8, ptr %4, i64 120
  store i32 %42, ptr %59, align 8
  tail call void @_ZN9hb_font_t13mults_changedEv(ptr noundef nonnull align 8 dereferenceable(192) %4)
  br label %61

60:                                               ; preds = %43
  tail call void @free(ptr noundef %45) #24
  tail call void @free(ptr noundef %46) #24
  br label %61

61:                                               ; preds = %49, %60, %hb_font_reference.exit
  tail call void @_ZN9hb_font_t13mults_changedEv(ptr noundef nonnull align 8 dereferenceable(192) %4)
  br label %62

62:                                               ; preds = %1, %61
  ret ptr %4
}